target datalayout = "e-m:e-p270:32:32-p271:32:32-p272:64:64-i64:64-i128:128-f80:128-n8:16:32:64-S128"
target triple = "x86_64-pc-linux-gnu"

%struct.wpacket_st = type { ptr, ptr, i64, i64, i64, ptr, i8 }

@.str = private unnamed_addr constant [68 x i8] c"../openssl/providers/implementations/encode_decode/encode_key2any.c\00", align 1

; Function Attrs: nounwind uwtable
define internal i32 @prepare_rsa_params(ptr noundef %0, i32 noundef %1, i32 noundef %2, ptr noundef %3, ptr noundef %4) #0 {
  %6 = alloca i32, align 4
  %7 = alloca ptr, align 8
  %8 = alloca i32, align 4
  %9 = alloca i32, align 4
  %10 = alloca ptr, align 8
  %11 = alloca ptr, align 8
  %12 = alloca ptr, align 8
  %13 = alloca i32, align 4
  %14 = alloca ptr, align 8
  %15 = alloca %struct.wpacket_st, align 8
  %16 = alloca ptr, align 8
  %17 = alloca i64, align 8
  %18 = alloca i32, align 4
  store ptr %0, ptr %7, align 8, !tbaa !3
  store i32 %1, ptr %8, align 4, !tbaa !25
  store i32 %2, ptr %9, align 4, !tbaa !25
  store ptr %3, ptr %10, align 8, !tbaa !3
  store ptr %4, ptr %11, align 8, !tbaa !33
  call void @llvm.lifetime.start.p0(i64 8, ptr %12) #4
  %19 = load ptr, ptr %7, align 8, !tbaa !3
  %20 = call ptr @ossl_rsa_get0_pss_params_30(ptr noundef %19)
  store ptr %20, ptr %12, align 8, !tbaa !35
  %21 = load ptr, ptr %10, align 8, !tbaa !3
  store ptr null, ptr %21, align 8, !tbaa !3
  %22 = load ptr, ptr %7, align 8, !tbaa !3
  %23 = call i32 @RSA_test_flags(ptr noundef %22, i32 noundef 61440)
  switch i32 %23, label %88 [
    i32 0, label %24
    i32 4096, label %26
  ]

24:                                               ; preds = %5
  %25 = load ptr, ptr %11, align 8, !tbaa !33
  store i32 5, ptr %25, align 4, !tbaa !25
  store i32 1, ptr %6, align 4
  store i32 1, ptr %13, align 4
  br label %89

26:                                               ; preds = %5
  %27 = load ptr, ptr %12, align 8, !tbaa !35
  %28 = call i32 @ossl_rsa_pss_params_30_is_unrestricted(ptr noundef %27)
  %29 = icmp ne i32 %28, 0
  br i1 %29, label %30, label %32

30:                                               ; preds = %26
  %31 = load ptr, ptr %11, align 8, !tbaa !33
  store i32 -1, ptr %31, align 4, !tbaa !25
  store i32 1, ptr %6, align 4
  store i32 1, ptr %13, align 4
  br label %89

32:                                               ; preds = %26
  call void @llvm.lifetime.start.p0(i64 8, ptr %14) #4
  store ptr null, ptr %14, align 8, !tbaa !37
  call void @llvm.lifetime.start.p0(i64 56, ptr %15) #4
  call void @llvm.lifetime.start.p0(i64 8, ptr %16) #4
  store ptr null, ptr %16, align 8, !tbaa !23
  call void @llvm.lifetime.start.p0(i64 8, ptr %17) #4
  store i64 0, ptr %17, align 8, !tbaa !28
  call void @llvm.lifetime.start.p0(i64 4, ptr %18) #4
  store i32 0, ptr %18, align 4, !tbaa !25
  br label %33

33:                                               ; preds = %70, %32
  %34 = load i32, ptr %18, align 4, !tbaa !25
  %35 = icmp slt i32 %34, 2
  br i1 %35, label %36, label %73

36:                                               ; preds = %33
  %37 = load i32, ptr %18, align 4, !tbaa !25
  switch i32 %37, label %54 [
    i32 0, label %38
    i32 1, label %43
  ]

38:                                               ; preds = %36
  %39 = call i32 @WPACKET_init_null_der(ptr noundef %15)
  %40 = icmp ne i32 %39, 0
  br i1 %40, label %42, label %41

41:                                               ; preds = %38
  br label %85

42:                                               ; preds = %38
  br label %54

43:                                               ; preds = %36
  %44 = load i64, ptr %17, align 8, !tbaa !28
  %45 = call noalias ptr @CRYPTO_malloc(i64 noundef %44, ptr noundef @.str, i32 noundef 949)
  store ptr %45, ptr %16, align 8, !tbaa !23
  %46 = icmp eq ptr %45, null
  br i1 %46, label %52, label %47

47:                                               ; preds = %43
  %48 = load ptr, ptr %16, align 8, !tbaa !23
  %49 = load i64, ptr %17, align 8, !tbaa !28
  %50 = call i32 @WPACKET_init_der(ptr noundef %15, ptr noundef %48, i64 noundef %49)
  %51 = icmp ne i32 %50, 0
  br i1 %51, label %53, label %52

52:                                               ; preds = %47, %43
  call void @WPACKET_cleanup(ptr noundef %15)
  br label %85

53:                                               ; preds = %47
  br label %54

54:                                               ; preds = %36, %53, %42
  %55 = load ptr, ptr %12, align 8, !tbaa !35
  %56 = call i32 @ossl_DER_w_RSASSA_PSS_params(ptr noundef %15, i32 noundef -1, ptr noundef %55)
  %57 = icmp ne i32 %56, 0
  br i1 %57, label %58, label %64

58:                                               ; preds = %54
  %59 = call i32 @WPACKET_finish(ptr noundef %15)
  %60 = icmp ne i32 %59, 0
  br i1 %60, label %61, label %64

61:                                               ; preds = %58
  %62 = call i32 @WPACKET_get_total_written(ptr noundef %15, ptr noundef %17)
  %63 = icmp ne i32 %62, 0
  br i1 %63, label %65, label %64

64:                                               ; preds = %61, %58, %54
  call void @WPACKET_cleanup(ptr noundef %15)
  br label %85

65:                                               ; preds = %61
  call void @WPACKET_cleanup(ptr noundef %15)
  %66 = load i64, ptr %17, align 8, !tbaa !28
  %67 = icmp eq i64 %66, 0
  br i1 %67, label %68, label %69

68:                                               ; preds = %65
  br label %73

69:                                               ; preds = %65
  br label %70

70:                                               ; preds = %69
  %71 = load i32, ptr %18, align 4, !tbaa !25
  %72 = add nsw i32 %71, 1
  store i32 %72, ptr %18, align 4, !tbaa !25
  br label %33, !llvm.loop !39

73:                                               ; preds = %68, %33
  %74 = call ptr @ASN1_STRING_new()
  store ptr %74, ptr %14, align 8, !tbaa !37
  %75 = icmp eq ptr %74, null
  br i1 %75, label %76, label %77

76:                                               ; preds = %73
  br label %85

77:                                               ; preds = %73
  %78 = load ptr, ptr %11, align 8, !tbaa !33
  store i32 16, ptr %78, align 4, !tbaa !25
  %79 = load ptr, ptr %14, align 8, !tbaa !37
  %80 = load ptr, ptr %16, align 8, !tbaa !23
  %81 = load i64, ptr %17, align 8, !tbaa !28
  %82 = trunc i64 %81 to i32
  call void @ASN1_STRING_set0(ptr noundef %79, ptr noundef %80, i32 noundef %82)
  %83 = load ptr, ptr %14, align 8, !tbaa !37
  %84 = load ptr, ptr %10, align 8, !tbaa !3
  store ptr %83, ptr %84, align 8, !tbaa !3
  store i32 1, ptr %6, align 4
  store i32 1, ptr %13, align 4
  br label %87

85:                                               ; preds = %76, %64, %52, %41
  %86 = load ptr, ptr %16, align 8, !tbaa !23
  call void @CRYPTO_free(ptr noundef %86, ptr noundef @.str, i32 noundef 982)
  store i32 0, ptr %6, align 4
  store i32 1, ptr %13, align 4
  br label %87

87:                                               ; preds = %85, %77
  call void @llvm.lifetime.end.p0(i64 4, ptr %18) #4
  call void @llvm.lifetime.end.p0(i64 8, ptr %17) #4
  call void @llvm.lifetime.end.p0(i64 8, ptr %16) #4
  call void @llvm.lifetime.end.p0(i64 56, ptr %15) #4
  call void @llvm.lifetime.end.p0(i64 8, ptr %14) #4
  br label %89

88:                                               ; preds = %5
  store i32 0, ptr %6, align 4
  store i32 1, ptr %13, align 4
  br label %89

89:                                               ; preds = %88, %87, %30, %24
  call void @llvm.lifetime.end.p0(i64 8, ptr %12) #4
  %90 = load i32, ptr %6, align 4
  ret i32 %90
}