; Function Attrs: nounwind uwtable
define internal range(i32 0, 2) i32 @prepare_rsa_params(ptr noundef %0, i32 %1, i32 %2, ptr noundef writeonly captures(none) initializes((0, 8)) %3, ptr noundef writeonly captures(none) %4) #0 {
  %6 = alloca %struct.wpacket_st, align 8
  %7 = alloca i64, align 8
  %8 = tail call ptr @ossl_rsa_get0_pss_params_30(ptr noundef %0) #5
  store ptr null, ptr %3, align 8, !tbaa !21
  %9 = tail call i32 @RSA_test_flags(ptr noundef %0, i32 noundef 61440) #5
  switch i32 %9, label %42 [
    i32 0, label %10
    i32 4096, label %11
  ]

10:                                               ; preds = %5
  store i32 5, ptr %4, align 4, !tbaa !20
  br label %42

11:                                               ; preds = %5
  %12 = tail call i32 @ossl_rsa_pss_params_30_is_unrestricted(ptr noundef %8) #5
  %.not = icmp eq i32 %12, 0
  br i1 %.not, label %14, label %13

13:                                               ; preds = %11
  store i32 -1, ptr %4, align 4, !tbaa !20
  br label %42

14:                                               ; preds = %11
  call void @llvm.lifetime.start.p0(i64 56, ptr nonnull %6) #5
  call void @llvm.lifetime.start.p0(i64 8, ptr nonnull %7) #5
  store i64 0, ptr %7, align 8, !tbaa !23
  br label %15

15:                                               ; preds = %32, %14
  %16 = phi i64 [ 0, %14 ], [ %33, %32 ]
  %17 = phi i1 [ true, %14 ], [ false, %32 ]
  %.031 = phi i1 [ false, %14 ], [ true, %32 ]
  %.01730 = phi ptr [ null, %14 ], [ %.2, %32 ]
  br i1 %.031, label %20, label %18

18:                                               ; preds = %15
  %19 = call i32 @WPACKET_init_null_der(ptr noundef nonnull %6) #5
  %.not23 = icmp eq i32 %19, 0
  br i1 %.not23, label %.loopexit, label %26

20:                                               ; preds = %15
  %21 = call noalias ptr @CRYPTO_malloc(i64 noundef %16, ptr noundef nonnull @.str, i32 noundef 949) #5
  %22 = icmp eq ptr %21, null
  br i1 %22, label %.loopexit.sink.split, label %23

23:                                               ; preds = %20
  %24 = load i64, ptr %7, align 8, !tbaa !23
  %25 = call i32 @WPACKET_init_der(ptr noundef nonnull %6, ptr noundef nonnull %21, i64 noundef %24) #5
  %.not22 = icmp eq i32 %25, 0
  br i1 %.not22, label %.loopexit.sink.split, label %26

26:                                               ; preds = %23, %18
  %.2 = phi ptr [ %21, %23 ], [ %.01730, %18 ]
  %27 = call i32 @ossl_DER_w_RSASSA_PSS_params(ptr noundef nonnull %6, i32 noundef -1, ptr noundef %8) #5
  %.not24 = icmp eq i32 %27, 0
  br i1 %.not24, label %.loopexit.sink.split, label %28

28:                                               ; preds = %26
  %29 = call i32 @WPACKET_finish(ptr noundef nonnull %6) #5
  %.not25 = icmp eq i32 %29, 0
  br i1 %.not25, label %.loopexit.sink.split, label %30

30:                                               ; preds = %28
  %31 = call i32 @WPACKET_get_total_written(ptr noundef nonnull %6, ptr noundef nonnull %7) #5
  %.not26 = icmp eq i32 %31, 0
  br i1 %.not26, label %.loopexit.sink.split, label %32

32:                                               ; preds = %30
  call void @WPACKET_cleanup(ptr noundef nonnull %6) #5
  %33 = load i64, ptr %7, align 8, !tbaa !23
  %34 = icmp ne i64 %33, 0
  %or.cond = and i1 %34, %17
  br i1 %or.cond, label %15, label %35, !llvm.loop !24

35:                                               ; preds = %32
  %36 = call ptr @ASN1_STRING_new() #5
  %37 = icmp eq ptr %36, null
  br i1 %37, label %.loopexit, label %38

38:                                               ; preds = %35
  store i32 16, ptr %4, align 4, !tbaa !20
  %39 = load i64, ptr %7, align 8, !tbaa !23
  %40 = trunc i64 %39 to i32
  call void @ASN1_STRING_set0(ptr noundef nonnull %36, ptr noundef %.2, i32 noundef %40) #5
  store ptr %36, ptr %3, align 8, !tbaa !21
  br label %41

.loopexit.sink.split:                             ; preds = %26, %28, %30, %20, %23
  %.3.ph = phi ptr [ %21, %23 ], [ %21, %20 ], [ %.2, %30 ], [ %.2, %28 ], [ %.2, %26 ]
  call void @WPACKET_cleanup(ptr noundef nonnull %6) #5
  br label %.loopexit

.loopexit:                                        ; preds = %18, %.loopexit.sink.split, %35
  %.3 = phi ptr [ %.2, %35 ], [ %.3.ph, %.loopexit.sink.split ], [ %.01730, %18 ]
  call void @CRYPTO_free(ptr noundef %.3, ptr noundef nonnull @.str, i32 noundef 982) #5
  br label %41

41:                                               ; preds = %.loopexit, %38
  %.119 = phi i32 [ 0, %.loopexit ], [ 1, %38 ]
  call void @llvm.lifetime.end.p0(i64 8, ptr nonnull %7) #5
  call void @llvm.lifetime.end.p0(i64 56, ptr nonnull %6) #5
  br label %42

42:                                               ; preds = %5, %41, %13, %10
  %.018 = phi i32 [ 1, %13 ], [ %.119, %41 ], [ 1, %10 ], [ 0, %5 ]
  ret i32 %.018
}